; Function Attrs: nounwind uwtable
define noalias noundef ptr @Ivy_ManLatches(ptr noundef readonly captures(none) %0) local_unnamed_addr #1 {
  %2 = getelementptr i8, ptr %0, i64 136
  %.val12 = load i32, ptr %2, align 8
  %3 = tail call noalias dereferenceable_or_null(16) ptr @malloc(i64 noundef 16) #18
  %4 = add i32 %.val12, -1
  %or.cond.i = icmp ult i32 %4, 15
  %spec.store.select.i = select i1 %or.cond.i, i32 16, i32 %.val12
  %5 = getelementptr inbounds nuw i8, ptr %3, i64 4
  store i32 0, ptr %5, align 4
  store i32 %spec.store.select.i, ptr %3, align 8
  %.not.i = icmp eq i32 %spec.store.select.i, 0
  br i1 %.not.i, label %Vec_IntAlloc.exit, label %6

6:                                                ; preds = %1
  %7 = sext i32 %spec.store.select.i to i64
  %8 = shl nsw i64 %7, 2
  %9 = tail call noalias ptr @malloc(i64 noundef %8) #18
  br label %Vec_IntAlloc.exit

Vec_IntAlloc.exit:                                ; preds = %1, %6
  %10 = phi ptr [ %9, %6 ], [ null, %1 ]
  %11 = getelementptr inbounds nuw i8, ptr %3, i64 8
  store ptr %10, ptr %11, align 8
  %12 = getelementptr inbounds nuw i8, ptr %0, i64 24
  %13 = load ptr, ptr %12, align 8
  %14 = getelementptr i8, ptr %13, i64 4
  %.val14 = load i32, ptr %14, align 4
  %15 = icmp sgt i32 %.val14, 0
  br i1 %15, label %.lr.ph, label %.critedge

.lr.ph:                                           ; preds = %Vec_IntAlloc.exit, %53
  %16 = phi ptr [ %54, %53 ], [ %13, %Vec_IntAlloc.exit ]
  %indvars.iv = phi i64 [ %indvars.iv.next, %53 ], [ 0, %Vec_IntAlloc.exit ]
  %17 = getelementptr i8, ptr %16, i64 8
  %.val11 = load ptr, ptr %17, align 8
  %18 = getelementptr inbounds nuw ptr, ptr %.val11, i64 %indvars.iv
  %19 = load ptr, ptr %18, align 8
  %20 = icmp eq ptr %19, null
  br i1 %20, label %53, label %21

21:                                               ; preds = %.lr.ph
  %22 = getelementptr i8, ptr %19, i64 8
  %.val13 = load i32, ptr %22, align 8
  %23 = and i32 %.val13, 15
  %.not = icmp eq i32 %23, 4
  br i1 %.not, label %24, label %53

24:                                               ; preds = %21
  %25 = load i32, ptr %19, align 8
  %26 = load i32, ptr %5, align 4
  %27 = load i32, ptr %3, align 8
  %28 = icmp eq i32 %26, %27
  br i1 %28, label %29, label %.Vec_IntGrow.exit10_crit_edge.i

.Vec_IntGrow.exit10_crit_edge.i:                  ; preds = %24
  %.pre.i = load ptr, ptr %11, align 8
  br label %Vec_IntPush.exit

29:                                               ; preds = %24
  %30 = icmp slt i32 %26, 16
  br i1 %30, label %31, label %38

31:                                               ; preds = %29
  %32 = load ptr, ptr %11, align 8
  %.not9.i.i = icmp eq ptr %32, null
  br i1 %.not9.i.i, label %35, label %33

33:                                               ; preds = %31
  %34 = tail call dereferenceable_or_null(64) ptr @realloc(ptr noundef nonnull %32, i64 noundef 64) #17
  br label %Vec_IntGrow.exit.i

35:                                               ; preds = %31
  %36 = tail call noalias dereferenceable_or_null(64) ptr @malloc(i64 noundef 64) #18
  br label %Vec_IntGrow.exit.i

Vec_IntGrow.exit.i:                               ; preds = %35, %33
  %37 = phi ptr [ %34, %33 ], [ %36, %35 ]
  store ptr %37, ptr %11, align 8
  store i32 16, ptr %3, align 8
  br label %Vec_IntPush.exit

38:                                               ; preds = %29
  %39 = shl nuw nsw i32 %26, 1
  %40 = load ptr, ptr %11, align 8
  %.not9.i9.i = icmp eq ptr %40, null
  %41 = zext nneg i32 %39 to i64
  %42 = shl nuw nsw i64 %41, 2
  br i1 %.not9.i9.i, label %45, label %43

43:                                               ; preds = %38
  %44 = tail call ptr @realloc(ptr noundef nonnull %40, i64 noundef %42) #17
  br label %47

45:                                               ; preds = %38
  %46 = tail call noalias ptr @malloc(i64 noundef %42) #18
  br label %47

47:                                               ; preds = %45, %43
  %48 = phi ptr [ %44, %43 ], [ %46, %45 ]
  store ptr %48, ptr %11, align 8
  store i32 %39, ptr %3, align 8
  br label %Vec_IntPush.exit

Vec_IntPush.exit:                                 ; preds = %.Vec_IntGrow.exit10_crit_edge.i, %Vec_IntGrow.exit.i, %47
  %49 = phi ptr [ %.pre.i, %.Vec_IntGrow.exit10_crit_edge.i ], [ %48, %47 ], [ %37, %Vec_IntGrow.exit.i ]
  %50 = add nsw i32 %26, 1
  store i32 %50, ptr %5, align 4
  %51 = sext i32 %26 to i64
  %52 = getelementptr inbounds i32, ptr %49, i64 %51
  store i32 %25, ptr %52, align 4
  %.pre = load ptr, ptr %12, align 8
  br label %53

53:                                               ; preds = %.lr.ph, %21, %Vec_IntPush.exit
  %54 = phi ptr [ %16, %.lr.ph ], [ %16, %21 ], [ %.pre, %Vec_IntPush.exit ]
  %indvars.iv.next = add nuw nsw i64 %indvars.iv, 1
  %55 = getelementptr i8, ptr %54, i64 4
  %.val = load i32, ptr %55, align 4
  %56 = sext i32 %.val to i64
  %57 = icmp slt i64 %indvars.iv.next, %56
  br i1 %57, label %.lr.ph, label %.critedge, !llvm.loop !16

.critedge:                                        ; preds = %53, %Vec_IntAlloc.exit
  ret ptr %3
}